; Function Attrs: mustprogress nofree norecurse nosync nounwind memory(readwrite, inaccessiblemem: none) uwtable
define hidden void @_ZN2cv3hfs9Magnitude9loadImageERKNS_3MatENS_3PtrINS0_7orutils5ImageIhEEEE(ptr noundef nonnull readnone align 8 captures(none) dereferenceable(88) %0, ptr noundef nonnull readonly align 8 captures(none) dereferenceable(96) %1, ptr noundef readonly captures(none) %2) local_unnamed_addr #5 align 2 {
  %4 = getelementptr inbounds nuw i8, ptr %1, i64 8
  %5 = load i32, ptr %4, align 8, !tbaa !37
  %6 = getelementptr inbounds nuw i8, ptr %1, i64 12
  %7 = load i32, ptr %6, align 4, !tbaa !44
  %8 = load ptr, ptr %2, align 8, !tbaa !35
  %9 = getelementptr inbounds nuw i8, ptr %8, i64 8
  %10 = load ptr, ptr %9, align 8, !tbaa !31
  %11 = icmp sgt i32 %5, 0
  br i1 %11, label %.lr.ph21, label %._crit_edge22

.lr.ph21:                                         ; preds = %3
  %12 = getelementptr inbounds nuw i8, ptr %1, i64 16
  %13 = getelementptr inbounds nuw i8, ptr %1, i64 72
  %14 = icmp sgt i32 %7, 0
  br i1 %14, label %.lr.ph.us.preheader, label %._crit_edge22

.lr.ph.us.preheader:                              ; preds = %.lr.ph21
  %15 = zext nneg i32 %7 to i64
  %wide.trip.count28 = zext nneg i32 %5 to i64
  br label %.lr.ph.us

.lr.ph.us:                                        ; preds = %.lr.ph.us.preheader, %._crit_edge.us
  %indvars.iv25 = phi i64 [ 0, %.lr.ph.us.preheader ], [ %indvars.iv.next26, %._crit_edge.us ]
  %16 = load ptr, ptr %12, align 8, !tbaa !45
  %17 = load ptr, ptr %13, align 8, !tbaa !46
  %18 = load i64, ptr %17, align 8, !tbaa !47
  %19 = mul i64 %18, %indvars.iv25
  %20 = getelementptr inbounds nuw i8, ptr %16, i64 %19
  %21 = mul nuw nsw i64 %indvars.iv25, %15
  %invariant.gep = getelementptr inbounds nuw i8, ptr %10, i64 %21
  br label %22

22:                                               ; preds = %.lr.ph.us, %22
  %indvars.iv = phi i64 [ 0, %.lr.ph.us ], [ %indvars.iv.next, %22 ]
  %23 = getelementptr inbounds nuw i8, ptr %20, i64 %indvars.iv
  %24 = load i8, ptr %23, align 1, !tbaa !24
  %gep = getelementptr inbounds nuw i8, ptr %invariant.gep, i64 %indvars.iv
  store i8 %24, ptr %gep, align 1, !tbaa !24
  %indvars.iv.next = add nuw nsw i64 %indvars.iv, 1
  %exitcond.not = icmp eq i64 %indvars.iv.next, %15
  br i1 %exitcond.not, label %._crit_edge.us, label %22, !llvm.loop !48

._crit_edge.us:                                   ; preds = %22
  %indvars.iv.next26 = add nuw nsw i64 %indvars.iv25, 1
  %exitcond29.not = icmp eq i64 %indvars.iv.next26, %wide.trip.count28
  br i1 %exitcond29.not, label %._crit_edge22, label %.lr.ph.us, !llvm.loop !50

._crit_edge22:                                    ; preds = %._crit_edge.us, %.lr.ph21, %3
  ret void
}